; Function Attrs: mustprogress uwtable
define noundef i32 @_ZN7rocksdb17sstableKeyCompareEPKNS_10ComparatorERKNS_5SliceES5_(ptr noundef %uc, ptr nocapture noundef nonnull readonly align 8 dereferenceable(16) %a, ptr nocapture noundef nonnull readonly align 8 dereferenceable(16) %b) local_unnamed_addr #3 {
entry:
  %ref.tmp = alloca %"class.rocksdb::Slice", align 8
  %ref.tmp1 = alloca %"class.rocksdb::Slice", align 8
  %0 = load ptr, ptr %a, align 8
  %size_.i.i = getelementptr inbounds i8, ptr %a, i64 8
  %1 = load i64, ptr %size_.i.i, align 8
  %sub.i = add i64 %1, -8
  store ptr %0, ptr %ref.tmp, align 8
  %2 = getelementptr inbounds i8, ptr %ref.tmp, i64 8
  store i64 %sub.i, ptr %2, align 8
  %3 = load ptr, ptr %b, align 8
  %size_.i.i5 = getelementptr inbounds i8, ptr %b, i64 8
  %4 = load i64, ptr %size_.i.i5, align 8
  %sub.i6 = add i64 %4, -8
  store ptr %3, ptr %ref.tmp1, align 8
  %5 = getelementptr inbounds i8, ptr %ref.tmp1, i64 8
  store i64 %sub.i6, ptr %5, align 8
  %vtable.i = load ptr, ptr %uc, align 8
  %vfn.i = getelementptr inbounds i8, ptr %vtable.i, i64 208
  %6 = load ptr, ptr %vfn.i, align 8
  %call.i = call noundef i32 %6(ptr noundef nonnull align 8 dereferenceable(48) %uc, ptr noundef nonnull align 8 dereferenceable(16) %ref.tmp, i1 noundef zeroext true, ptr noundef nonnull align 8 dereferenceable(16) %ref.tmp1, i1 noundef zeroext true)
  %cmp.not = icmp eq i32 %call.i, 0
  br i1 %cmp.not, label %if.end, label %return

if.end:                                           ; preds = %entry
  %7 = load i64, ptr %size_.i.i, align 8
  %8 = load ptr, ptr %a, align 8
  %add.ptr.i = getelementptr inbounds i8, ptr %8, i64 %7
  %add.ptr2.i = getelementptr inbounds i8, ptr %add.ptr.i, i64 -8
  %result.0.copyload.i.i = load i64, ptr %add.ptr2.i, align 1
  %9 = load i64, ptr %size_.i.i5, align 8
  %10 = load ptr, ptr %b, align 8
  %add.ptr.i11 = getelementptr inbounds i8, ptr %10, i64 %9
  %add.ptr2.i12 = getelementptr inbounds i8, ptr %add.ptr.i11, i64 -8
  %result.0.copyload.i.i13 = load i64, ptr %add.ptr2.i12, align 1
  %.b = load i1, ptr @_ZN7rocksdbL23kRangeTombstoneSentinelE, align 8
  %11 = select i1 %.b, i64 -241, i64 0
  %cmp6 = icmp eq i64 %result.0.copyload.i.i, %11
  br i1 %cmp6, label %if.then7, label %if.else

if.then7:                                         ; preds = %if.end
  %cmp8.not = icmp eq i64 %result.0.copyload.i.i13, %result.0.copyload.i.i
  br i1 %cmp8.not, label %if.end14, label %return

if.else:                                          ; preds = %if.end
  %cmp11 = icmp eq i64 %result.0.copyload.i.i13, %11
  br i1 %cmp11, label %return, label %if.end14

if.end14:                                         ; preds = %if.else, %if.then7
  br label %return

return:                                           ; preds = %if.else, %if.then7, %entry, %if.end14
  %retval.0 = phi i32 [ 0, %if.end14 ], [ %call.i, %entry ], [ -1, %if.then7 ], [ 1, %if.else ]
  ret i32 %retval.0
}